target datalayout = "e-m:e-p270:32:32-p271:32:32-p272:64:64-i64:64-i128:128-f80:128-n8:16:32:64-S128"
target triple = "x86_64-pc-linux-gnu"

%struct.packet_range_tag = type { i32, i8, i8, i8, ptr, i32, ptr, i32, ptr, i32, i32, i32, i32, i32, i32, i32, i32, i32, i32, i32, i32, i32, i32, i32, i32, i32, i32, i32, i32, i32, i32, i32, i32, i32, i32, i32, ptr, ptr, ptr, ptr, ptr, ptr, ptr, ptr, i8, i32 }
%struct._capture_file = type { ptr, i32, ptr, ptr, i8, i8, i8, i64, i16, i32, i32, i32, ptr, i32, i64, i32, i32, i32, i32, i8, i32, %struct.nstime_t, i32, ptr, ptr, ptr, i8, i8, i32, ptr, i8, i8, i8, i8, i8, i32, i32, i8, ptr, i32, i32, i8, %struct.packet_provider_data, i32, i32, %struct.epan_column_info, ptr, ptr, ptr, %struct.wtap_rec, %struct.Buffer, ptr, i64, i32 }
%struct.nstime_t = type { i64, i32 }
%struct.packet_provider_data = type { ptr, ptr, ptr, ptr, ptr, ptr }
%struct.epan_column_info = type { ptr, i32, ptr, ptr, ptr, %struct.col_expr_t, i8, ptr }
%struct.col_expr_t = type { ptr, ptr }
%struct.wtap_rec = type { i32, i32, i32, %struct.nstime_t, i32, %struct.nstime_t, i8, %union.anon, ptr, i8, %struct.Buffer, %struct.Buffer }
%union.anon = type { %struct.wtap_packet_header }
%struct.wtap_packet_header = type { i32, i32, i32, i32, %union.wtap_pseudo_header }
%union.wtap_pseudo_header = type { %struct.erf_mc_phdr }
%struct.erf_mc_phdr = type { %struct.erf_phdr, [16 x %struct.erf_ehdr], %union.anon.1 }
%struct.erf_phdr = type { i64, i8, i8, i16, i16, i16 }
%struct.erf_ehdr = type { i64 }
%union.anon.1 = type { i32 }
%struct.Buffer = type { ptr, i64, i64, i64 }
%struct._frame_data = type <{ i32, i32, i32, i32, i32, [4 x i8], i64, ptr, ptr, ptr, i8, i16, [5 x i8], %struct.nstime_t, %struct.nstime_t, i32, i32 }>

; Function Attrs: null_pointer_is_valid sspstrong uwtable
define internal void @packet_range_calc_user(ptr noundef %0) #0 {
  %2 = alloca ptr, align 8
  %3 = alloca i32, align 4
  %4 = alloca ptr, align 8
  store ptr %0, ptr %2, align 8
  call void @llvm.lifetime.start.p0(i64 4, ptr %3) #9
  call void @llvm.lifetime.start.p0(i64 8, ptr %4) #9
  %5 = load ptr, ptr %2, align 8
  %6 = getelementptr inbounds nuw %struct.packet_range_tag, ptr %5, i32 0, i32 10
  store i32 0, ptr %6, align 4
  %7 = load ptr, ptr %2, align 8
  %8 = getelementptr inbounds nuw %struct.packet_range_tag, ptr %7, i32 0, i32 19
  store i32 0, ptr %8, align 8
  %9 = load ptr, ptr %2, align 8
  %10 = getelementptr inbounds nuw %struct.packet_range_tag, ptr %9, i32 0, i32 25
  store i32 0, ptr %10, align 8
  %11 = load ptr, ptr %2, align 8
  %12 = getelementptr inbounds nuw %struct.packet_range_tag, ptr %11, i32 0, i32 28
  store i32 0, ptr %12, align 4
  %13 = load ptr, ptr %2, align 8
  %14 = getelementptr inbounds nuw %struct.packet_range_tag, ptr %13, i32 0, i32 34
  store i32 0, ptr %14, align 4
  br label %15

15:                                               ; preds = %1
  br label %16

16:                                               ; preds = %15
  br label %17

17:                                               ; preds = %16
  %18 = load ptr, ptr %2, align 8
  %19 = getelementptr inbounds nuw %struct.packet_range_tag, ptr %18, i32 0, i32 8
  %20 = load ptr, ptr %19, align 8
  %21 = getelementptr inbounds nuw %struct._capture_file, ptr %20, i32 0, i32 42
  %22 = getelementptr inbounds nuw %struct.packet_provider_data, ptr %21, i32 0, i32 4
  %23 = load ptr, ptr %22, align 8
  %24 = icmp ne ptr %23, null
  br i1 %24, label %25, label %128

25:                                               ; preds = %17
  store i32 1, ptr %3, align 4
  br label %26

26:                                               ; preds = %112, %25
  %27 = load i32, ptr %3, align 4
  %28 = load ptr, ptr %2, align 8
  %29 = getelementptr inbounds nuw %struct.packet_range_tag, ptr %28, i32 0, i32 8
  %30 = load ptr, ptr %29, align 8
  %31 = getelementptr inbounds nuw %struct._capture_file, ptr %30, i32 0, i32 13
  %32 = load i32, ptr %31, align 8
  %33 = icmp ule i32 %27, %32
  br i1 %33, label %34, label %115

34:                                               ; preds = %26
  %35 = load ptr, ptr %2, align 8
  %36 = getelementptr inbounds nuw %struct.packet_range_tag, ptr %35, i32 0, i32 8
  %37 = load ptr, ptr %36, align 8
  %38 = getelementptr inbounds nuw %struct._capture_file, ptr %37, i32 0, i32 42
  %39 = getelementptr inbounds nuw %struct.packet_provider_data, ptr %38, i32 0, i32 4
  %40 = load ptr, ptr %39, align 8
  %41 = load i32, ptr %3, align 4
  %42 = call ptr @frame_data_sequence_find(ptr noundef %40, i32 noundef %41)
  store ptr %42, ptr %4, align 8
  %43 = load ptr, ptr %2, align 8
  %44 = getelementptr inbounds nuw %struct.packet_range_tag, ptr %43, i32 0, i32 4
  %45 = load ptr, ptr %44, align 8
  %46 = load i32, ptr %3, align 4
  %47 = call zeroext i1 @value_is_in_range(ptr noundef %45, i32 noundef %46)
  br i1 %47, label %48, label %111

48:                                               ; preds = %34
  %49 = load ptr, ptr %2, align 8
  %50 = getelementptr inbounds nuw %struct.packet_range_tag, ptr %49, i32 0, i32 10
  %51 = load i32, ptr %50, align 4
  %52 = add i32 %51, 1
  store i32 %52, ptr %50, align 4
  %53 = load ptr, ptr %4, align 8
  %54 = getelementptr inbounds nuw %struct._frame_data, ptr %53, i32 0, i32 11
  %55 = load i16, ptr %54, align 1
  %56 = lshr i16 %55, 6
  %57 = and i16 %56, 1
  %58 = zext i16 %57 to i32
  %59 = icmp ne i32 %58, 0
  br i1 %59, label %60, label %65

60:                                               ; preds = %48
  %61 = load ptr, ptr %2, align 8
  %62 = getelementptr inbounds nuw %struct.packet_range_tag, ptr %61, i32 0, i32 19
  %63 = load i32, ptr %62, align 8
  %64 = add i32 %63, 1
  store i32 %64, ptr %62, align 8
  br label %65

65:                                               ; preds = %60, %48
  %66 = load ptr, ptr %2, align 8
  %67 = getelementptr inbounds nuw %struct.packet_range_tag, ptr %66, i32 0, i32 40
  %68 = load ptr, ptr %67, align 8
  %69 = load ptr, ptr %2, align 8
  %70 = getelementptr inbounds nuw %struct.packet_range_tag, ptr %69, i32 0, i32 8
  %71 = load ptr, ptr %70, align 8
  %72 = getelementptr inbounds nuw %struct._capture_file, ptr %71, i32 0, i32 42
  %73 = getelementptr inbounds nuw %struct.packet_provider_data, ptr %72, i32 0, i32 4
  %74 = load ptr, ptr %73, align 8
  %75 = load ptr, ptr %4, align 8
  call void @depended_frames_add(ptr noundef %68, ptr noundef %74, ptr noundef %75, i32 noundef 0)
  %76 = load ptr, ptr %4, align 8
  %77 = getelementptr inbounds nuw %struct._frame_data, ptr %76, i32 0, i32 11
  %78 = load i16, ptr %77, align 1
  %79 = and i16 %78, 1
  %80 = zext i16 %79 to i32
  %81 = icmp ne i32 %80, 0
  br i1 %81, label %82, label %110

82:                                               ; preds = %65
  %83 = load ptr, ptr %2, align 8
  %84 = getelementptr inbounds nuw %struct.packet_range_tag, ptr %83, i32 0, i32 25
  %85 = load i32, ptr %84, align 8
  %86 = add i32 %85, 1
  store i32 %86, ptr %84, align 8
  %87 = load ptr, ptr %4, align 8
  %88 = getelementptr inbounds nuw %struct._frame_data, ptr %87, i32 0, i32 11
  %89 = load i16, ptr %88, align 1
  %90 = lshr i16 %89, 6
  %91 = and i16 %90, 1
  %92 = zext i16 %91 to i32
  %93 = icmp ne i32 %92, 0
  br i1 %93, label %94, label %99

94:                                               ; preds = %82
  %95 = load ptr, ptr %2, align 8
  %96 = getelementptr inbounds nuw %struct.packet_range_tag, ptr %95, i32 0, i32 34
  %97 = load i32, ptr %96, align 4
  %98 = add i32 %97, 1
  store i32 %98, ptr %96, align 4
  br label %99

99:                                               ; preds = %94, %82
  %100 = load ptr, ptr %2, align 8
  %101 = getelementptr inbounds nuw %struct.packet_range_tag, ptr %100, i32 0, i32 41
  %102 = load ptr, ptr %101, align 8
  %103 = load ptr, ptr %2, align 8
  %104 = getelementptr inbounds nuw %struct.packet_range_tag, ptr %103, i32 0, i32 8
  %105 = load ptr, ptr %104, align 8
  %106 = getelementptr inbounds nuw %struct._capture_file, ptr %105, i32 0, i32 42
  %107 = getelementptr inbounds nuw %struct.packet_provider_data, ptr %106, i32 0, i32 4
  %108 = load ptr, ptr %107, align 8
  %109 = load ptr, ptr %4, align 8
  call void @depended_frames_add(ptr noundef %102, ptr noundef %108, ptr noundef %109, i32 noundef 0)
  br label %110

110:                                              ; preds = %99, %65
  br label %111

111:                                              ; preds = %110, %34
  br label %112

112:                                              ; preds = %111
  %113 = load i32, ptr %3, align 4
  %114 = add i32 %113, 1
  store i32 %114, ptr %3, align 4
  br label %26, !llvm.loop !9

115:                                              ; preds = %26
  %116 = load ptr, ptr %2, align 8
  %117 = getelementptr inbounds nuw %struct.packet_range_tag, ptr %116, i32 0, i32 40
  %118 = load ptr, ptr %117, align 8
  %119 = call i32 @g_hash_table_size(ptr noundef %118)
  %120 = load ptr, ptr %2, align 8
  %121 = getelementptr inbounds nuw %struct.packet_range_tag, ptr %120, i32 0, i32 14
  store i32 %119, ptr %121, align 4
  %122 = load ptr, ptr %2, align 8
  %123 = getelementptr inbounds nuw %struct.packet_range_tag, ptr %122, i32 0, i32 41
  %124 = load ptr, ptr %123, align 8
  %125 = call i32 @g_hash_table_size(ptr noundef %124)
  %126 = load ptr, ptr %2, align 8
  %127 = getelementptr inbounds nuw %struct.packet_range_tag, ptr %126, i32 0, i32 28
  store i32 %125, ptr %127, align 4
  br label %128

128:                                              ; preds = %115, %17
  call void @llvm.lifetime.end.p0(i64 8, ptr %4) #9
  call void @llvm.lifetime.end.p0(i64 4, ptr %3) #9
  ret void
}