; Function Attrs: null_pointer_is_valid sspstrong uwtable
define internal fastcc void @packet_range_calc_user(ptr noundef captures(none) initializes((52, 56), (88, 92), (112, 116), (124, 128), (148, 152)) %0) unnamed_addr #0 {
  %2 = getelementptr inbounds nuw i8, ptr %0, i64 52
  store i32 0, ptr %2, align 4
  %3 = getelementptr inbounds nuw i8, ptr %0, i64 88
  store i32 0, ptr %3, align 8
  %4 = getelementptr inbounds nuw i8, ptr %0, i64 112
  store i32 0, ptr %4, align 8
  %5 = getelementptr inbounds nuw i8, ptr %0, i64 124
  store i32 0, ptr %5, align 4
  %6 = getelementptr inbounds nuw i8, ptr %0, i64 148
  store i32 0, ptr %6, align 4
  %7 = getelementptr inbounds nuw i8, ptr %0, i64 40
  %8 = load ptr, ptr %7, align 8
  %9 = getelementptr inbounds nuw i8, ptr %8, i64 256
  %10 = load ptr, ptr %9, align 8
  %.not = icmp eq ptr %10, null
  br i1 %.not, label %64, label %.preheader

.preheader:                                       ; preds = %1
  %11 = getelementptr inbounds nuw i8, ptr %8, i64 72
  %12 = load i32, ptr %11, align 8
  %.not2933 = icmp eq i32 %12, 0
  br i1 %.not2933, label %._crit_edge, label %.lr.ph

.lr.ph:                                           ; preds = %.preheader
  %13 = getelementptr inbounds nuw i8, ptr %0, i64 8
  %14 = getelementptr inbounds nuw i8, ptr %0, i64 192
  %15 = getelementptr inbounds nuw i8, ptr %0, i64 200
  br label %16

16:                                               ; preds = %.lr.ph, %52
  %17 = phi ptr [ %8, %.lr.ph ], [ %54, %52 ]
  %.034 = phi i32 [ 1, %.lr.ph ], [ %53, %52 ]
  %18 = getelementptr inbounds nuw i8, ptr %17, i64 256
  %19 = load ptr, ptr %18, align 8
  %20 = tail call ptr @frame_data_sequence_find(ptr noundef %19, i32 noundef %.034)
  %21 = load ptr, ptr %13, align 8
  %22 = tail call zeroext i1 @value_is_in_range(ptr noundef %21, i32 noundef %.034)
  br i1 %22, label %23, label %52

23:                                               ; preds = %16
  %24 = load i32, ptr %2, align 4
  %25 = add i32 %24, 1
  store i32 %25, ptr %2, align 4
  %26 = getelementptr inbounds nuw i8, ptr %20, i64 57
  %27 = load i16, ptr %26, align 1
  %28 = and i16 %27, 64
  %.not30 = icmp eq i16 %28, 0
  br i1 %.not30, label %32, label %29

29:                                               ; preds = %23
  %30 = load i32, ptr %3, align 8
  %31 = add i32 %30, 1
  store i32 %31, ptr %3, align 8
  br label %32

32:                                               ; preds = %29, %23
  %33 = load ptr, ptr %14, align 8
  %34 = load ptr, ptr %7, align 8
  %35 = getelementptr inbounds nuw i8, ptr %34, i64 256
  %36 = load ptr, ptr %35, align 8
  tail call fastcc void @depended_frames_add(ptr noundef %33, ptr noundef %36, ptr noundef %20, i32 noundef 0)
  %37 = load i16, ptr %26, align 1
  %38 = and i16 %37, 1
  %.not31 = icmp eq i16 %38, 0
  br i1 %.not31, label %52, label %39

39:                                               ; preds = %32
  %40 = load i32, ptr %4, align 8
  %41 = add i32 %40, 1
  store i32 %41, ptr %4, align 8
  %42 = load i16, ptr %26, align 1
  %43 = and i16 %42, 64
  %.not32 = icmp eq i16 %43, 0
  br i1 %.not32, label %47, label %44

44:                                               ; preds = %39
  %45 = load i32, ptr %6, align 4
  %46 = add i32 %45, 1
  store i32 %46, ptr %6, align 4
  br label %47

47:                                               ; preds = %44, %39
  %48 = load ptr, ptr %15, align 8
  %49 = load ptr, ptr %7, align 8
  %50 = getelementptr inbounds nuw i8, ptr %49, i64 256
  %51 = load ptr, ptr %50, align 8
  tail call fastcc void @depended_frames_add(ptr noundef %48, ptr noundef %51, ptr noundef %20, i32 noundef 0)
  br label %52

52:                                               ; preds = %16, %47, %32
  %53 = add i32 %.034, 1
  %54 = load ptr, ptr %7, align 8
  %55 = getelementptr inbounds nuw i8, ptr %54, i64 72
  %56 = load i32, ptr %55, align 8
  %.not29 = icmp ugt i32 %53, %56
  br i1 %.not29, label %._crit_edge, label %16, !llvm.loop !9

._crit_edge:                                      ; preds = %52, %.preheader
  %57 = getelementptr inbounds nuw i8, ptr %0, i64 192
  %58 = load ptr, ptr %57, align 8
  %59 = tail call i32 @g_hash_table_size(ptr noundef %58)
  %60 = getelementptr inbounds nuw i8, ptr %0, i64 68
  store i32 %59, ptr %60, align 4
  %61 = getelementptr inbounds nuw i8, ptr %0, i64 200
  %62 = load ptr, ptr %61, align 8
  %63 = tail call i32 @g_hash_table_size(ptr noundef %62)
  store i32 %63, ptr %5, align 4
  br label %64

64:                                               ; preds = %._crit_edge, %1
  ret void
}